target datalayout = "e-m:e-p270:32:32-p271:32:32-p272:64:64-i64:64-i128:128-f80:128-n8:16:32:64-S128"
target triple = "x86_64-pc-linux-gnu"

%struct.Matrix = type { float, float, float, float, float, float, float, float, float, float, float, float, float, float, float, float }

; Function Attrs: nounwind uwtable
define void @MatrixRotateX(ptr dead_on_unwind noalias writable sret(%struct.Matrix) align 4 %0, float noundef %1) #0 {
  %3 = alloca float, align 4
  %4 = alloca float, align 4
  %5 = alloca float, align 4
  store float %1, ptr %3, align 4
  call void @llvm.memset.p0.i64(ptr align 4 %0, i8 0, i64 64, i1 false)
  %6 = getelementptr inbounds %struct.Matrix, ptr %0, i32 0, i32 0
  store float 1.000000e+00, ptr %6, align 4
  %7 = getelementptr inbounds %struct.Matrix, ptr %0, i32 0, i32 5
  store float 1.000000e+00, ptr %7, align 4
  %8 = getelementptr inbounds %struct.Matrix, ptr %0, i32 0, i32 10
  store float 1.000000e+00, ptr %8, align 4
  %9 = getelementptr inbounds %struct.Matrix, ptr %0, i32 0, i32 15
  store float 1.000000e+00, ptr %9, align 4
  call void @llvm.lifetime.start.p0(i64 4, ptr %4) #16
  %10 = load float, ptr %3, align 4
  %11 = call float @cosf(float noundef %10) #16
  store float %11, ptr %4, align 4
  call void @llvm.lifetime.start.p0(i64 4, ptr %5) #16
  %12 = load float, ptr %3, align 4
  %13 = call float @sinf(float noundef %12) #16
  store float %13, ptr %5, align 4
  %14 = load float, ptr %4, align 4
  %15 = getelementptr inbounds nuw %struct.Matrix, ptr %0, i32 0, i32 5
  store float %14, ptr %15, align 4
  %16 = load float, ptr %5, align 4
  %17 = getelementptr inbounds nuw %struct.Matrix, ptr %0, i32 0, i32 9
  store float %16, ptr %17, align 4
  %18 = load float, ptr %5, align 4
  %19 = fneg float %18
  %20 = getelementptr inbounds nuw %struct.Matrix, ptr %0, i32 0, i32 6
  store float %19, ptr %20, align 4
  %21 = load float, ptr %4, align 4
  %22 = getelementptr inbounds nuw %struct.Matrix, ptr %0, i32 0, i32 10
  store float %21, ptr %22, align 4
  call void @llvm.lifetime.end.p0(i64 4, ptr %5) #16
  call void @llvm.lifetime.end.p0(i64 4, ptr %4) #16
  ret void
}