; Function Attrs: mustprogress nofree nounwind willreturn memory(write) uwtable
define void @MatrixRotateX(ptr dead_on_unwind noalias writable writeonly sret(%struct.Matrix) align 4 captures(none) initializes((0, 64)) %0, float noundef %1) local_unnamed_addr #23 {
  %3 = getelementptr inbounds nuw i8, ptr %0, i64 4
  tail call void @llvm.memset.p0.i64(ptr noundef nonnull align 4 dereferenceable(64) %3, i8 0, i64 56, i1 false)
  store float 1.000000e+00, ptr %0, align 4
  %4 = getelementptr inbounds nuw i8, ptr %0, i64 20
  %5 = getelementptr inbounds nuw i8, ptr %0, i64 40
  %6 = getelementptr inbounds nuw i8, ptr %0, i64 60
  store float 1.000000e+00, ptr %6, align 4
  %7 = tail call float @cosf(float noundef %1) #56
  %8 = tail call float @sinf(float noundef %1) #56
  store float %7, ptr %4, align 4
  %9 = getelementptr inbounds nuw i8, ptr %0, i64 36
  store float %8, ptr %9, align 4
  %10 = fneg float %8
  %11 = getelementptr inbounds nuw i8, ptr %0, i64 24
  store float %10, ptr %11, align 4
  store float %7, ptr %5, align 4
  ret void
}